target datalayout = "e-m:e-p270:32:32-p271:32:32-p272:64:64-i64:64-i128:128-f80:128-n8:16:32:64-S128"
target triple = "x86_64-pc-linux-gnu"

%struct.H5O_shared_t = type { i32, ptr, i32, %union.anon }
%union.anon = type { %struct.H5O_mesg_loc_t }
%struct.H5O_mesg_loc_t = type { i32, i64 }
%union.H5O_fheap_id_t = type { i64 }

@H5SM_init_g = global i8 0, align 1
@H5_libterm_g = external global i8, align 1

; Function Attrs: nounwind uwtable
define i32 @H5SM_reconstitute(ptr noundef %0, ptr noundef %1, i32 noundef %2, i64 %3) #0 {
  %5 = alloca %union.H5O_fheap_id_t, align 8
  %6 = alloca ptr, align 8
  %7 = alloca ptr, align 8
  %8 = alloca i32, align 4
  %9 = getelementptr inbounds nuw %union.H5O_fheap_id_t, ptr %5, i32 0, i32 0
  store i64 %3, ptr %9, align 8
  store ptr %0, ptr %6, align 8, !tbaa !110
  store ptr %1, ptr %7, align 8, !tbaa !3
  store i32 %2, ptr %8, align 4, !tbaa !14
  %10 = load i8, ptr @H5SM_init_g, align 1, !tbaa !18, !range !20, !noundef !21
  %11 = trunc i8 %10 to i1
  br i1 %11, label %16, label %12

12:                                               ; preds = %4
  %13 = load i8, ptr @H5_libterm_g, align 1, !tbaa !18, !range !20, !noundef !21
  %14 = trunc i8 %13 to i1
  %15 = xor i1 %14, true
  br label %16

16:                                               ; preds = %12, %4
  %17 = phi i1 [ true, %4 ], [ %15, %12 ]
  %18 = xor i1 %17, true
  %19 = xor i1 %18, true
  %20 = zext i1 %19 to i32
  %21 = sext i32 %20 to i64
  %22 = call i64 @llvm.expect.i64(i64 %21, i64 1)
  %23 = icmp ne i64 %22, 0
  br i1 %23, label %24, label %35

24:                                               ; preds = %16
  %25 = load ptr, ptr %6, align 8, !tbaa !110
  %26 = getelementptr inbounds nuw %struct.H5O_shared_t, ptr %25, i32 0, i32 0
  store i32 1, ptr %26, align 8, !tbaa !60
  %27 = load ptr, ptr %7, align 8, !tbaa !3
  %28 = load ptr, ptr %6, align 8, !tbaa !110
  %29 = getelementptr inbounds nuw %struct.H5O_shared_t, ptr %28, i32 0, i32 1
  store ptr %27, ptr %29, align 8, !tbaa !108
  %30 = load i32, ptr %8, align 4, !tbaa !14
  %31 = load ptr, ptr %6, align 8, !tbaa !110
  %32 = getelementptr inbounds nuw %struct.H5O_shared_t, ptr %31, i32 0, i32 2
  store i32 %30, ptr %32, align 8, !tbaa !109
  %33 = load ptr, ptr %6, align 8, !tbaa !110
  %34 = getelementptr inbounds nuw %struct.H5O_shared_t, ptr %33, i32 0, i32 3
  call void @llvm.memcpy.p0.p0.i64(ptr align 8 %34, ptr align 8 %5, i64 8, i1 false), !tbaa.struct !100
  br label %35

35:                                               ; preds = %24, %16
  ret i32 0
}