; Function Attrs: mustprogress nofree norecurse nosync nounwind willreturn memory(read, argmem: write, inaccessiblemem: none) uwtable
define noundef i32 @H5SM_reconstitute(ptr noundef writeonly captures(none) %0, ptr noundef %1, i32 noundef %2, i64 %3) local_unnamed_addr #4 {
  %5 = load i8, ptr @H5SM_init_g, align 1, !tbaa !9, !range !11, !noundef !12
  %6 = trunc nuw i8 %5 to i1
  %7 = load i8, ptr @H5_libterm_g, align 1, !range !11
  %8 = trunc nuw i8 %7 to i1
  %9 = xor i1 %8, true
  %10 = select i1 %6, i1 true, i1 %9
  br i1 %10, label %11, label %15, !prof !13

11:                                               ; preds = %4
  store i32 1, ptr %0, align 8, !tbaa !49
  %12 = getelementptr inbounds nuw i8, ptr %0, i64 8
  store ptr %1, ptr %12, align 8, !tbaa !96
  %13 = getelementptr inbounds nuw i8, ptr %0, i64 16
  store i32 %2, ptr %13, align 8, !tbaa !97
  %14 = getelementptr inbounds nuw i8, ptr %0, i64 24
  store i64 %3, ptr %14, align 8, !tbaa !89
  br label %15

15:                                               ; preds = %11, %4
  ret i32 0
}